target datalayout = "e-m:e-p270:32:32-p271:32:32-p272:64:64-i64:64-i128:128-f80:128-n8:16:32:64-S128"
target triple = "x86_64-pc-linux-gnu"

%struct.rb_data_type_struct = type { ptr, %struct.anon.5, ptr, ptr, i64 }
%struct.anon.5 = type { ptr, ptr, ptr, ptr, [1 x ptr] }
%struct.rb_econv_t = type { i32, i32, ptr, ptr, ptr, i64, ptr, ptr, ptr, ptr, ptr, ptr, i32, i32, i32, i32, ptr, %struct.anon, ptr, ptr }
%struct.anon = type { i32, ptr, ptr, ptr, ptr, i64, i64 }

@econv_data_type = internal constant %struct.rb_data_type_struct { ptr @.str.110, %struct.anon.5 { ptr null, ptr @econv_free, ptr @econv_memsize, ptr null, [1 x ptr] zeroinitializer }, ptr null, ptr null, i64 1 }, align 8
@rb_eTypeError = external global i64, align 8
@.str.119 = private unnamed_addr constant [33 x i8] c"uninitialized encoding converter\00", align 1

; Function Attrs: nounwind sspstrong uwtable
define internal i64 @econv_get_encoding(ptr noundef %0) #0 {
  %2 = alloca i64, align 8
  %3 = alloca ptr, align 8
  store ptr %0, ptr %3, align 8, !tbaa !106
  %4 = load ptr, ptr %3, align 8, !tbaa !106
  %5 = icmp ne ptr %4, null
  br i1 %5, label %7, label %6

6:                                                ; preds = %1
  store i64 4, ptr %2, align 8
  br label %10

7:                                                ; preds = %1
  %8 = load ptr, ptr %3, align 8, !tbaa !106
  %9 = call i64 @rb_enc_from_encoding(ptr noundef %8)
  store i64 %9, ptr %2, align 8
  br label %10

10:                                               ; preds = %7, %6
  %11 = load i64, ptr %2, align 8
  ret i64 %11
}

; Function Attrs: nounwind sspstrong uwtable
define internal ptr @check_econv(i64 noundef %0) #0 {
  %2 = alloca i64, align 8
  %3 = alloca ptr, align 8
  store i64 %0, ptr %2, align 8, !tbaa !12
  call void @llvm.lifetime.start.p0(i64 8, ptr %3) #25
  %4 = load i64, ptr %2, align 8, !tbaa !12
  %5 = call ptr @rb_check_typeddata(i64 noundef %4, ptr noundef @econv_data_type)
  store ptr %5, ptr %3, align 8, !tbaa !30
  %6 = load ptr, ptr %3, align 8, !tbaa !30
  %7 = icmp ne ptr %6, null
  br i1 %7, label %10, label %8

8:                                                ; preds = %1
  %9 = load i64, ptr @rb_eTypeError, align 8, !tbaa !12
  call void (i64, ptr, ...) @rb_raise(i64 noundef %9, ptr noundef @.str.119) #26
  unreachable

10:                                               ; preds = %1
  %11 = load ptr, ptr %3, align 8, !tbaa !30
  call void @llvm.lifetime.end.p0(i64 8, ptr %3) #25
  ret ptr %11
}

; Function Attrs: nounwind sspstrong uwtable
define internal i64 @econv_destination_encoding(i64 noundef %0) #0 {
  %2 = alloca i64, align 8
  %3 = alloca ptr, align 8
  store i64 %0, ptr %2, align 8, !tbaa !12
  call void @llvm.lifetime.start.p0(i64 8, ptr %3) #25
  %4 = load i64, ptr %2, align 8, !tbaa !12
  %5 = call ptr @check_econv(i64 noundef %4)
  store ptr %5, ptr %3, align 8, !tbaa !30
  %6 = load ptr, ptr %3, align 8, !tbaa !30
  %7 = getelementptr inbounds nuw %struct.rb_econv_t, ptr %6, i32 0, i32 19
  %8 = load ptr, ptr %7, align 8, !tbaa !105
  %9 = call i64 @econv_get_encoding(ptr noundef %8)
  call void @llvm.lifetime.end.p0(i64 8, ptr %3) #25
  ret i64 %9
}